; Function Attrs: mustprogress uwtable
define void @_ZN6casadi5InputC2ERKNS_8SparsityExxx(ptr noundef nonnull align 8 dereferenceable(88) %0, ptr noundef nonnull align 8 dereferenceable(8) %1, i64 noundef %2, i64 noundef %3, i64 noundef %4) unnamed_addr #3 align 2 personality ptr @__gxx_personality_v0 {
  tail call void @_ZN6casadi6MXNodeC2Ev(ptr noundef nonnull align 8 dereferenceable(64) %0)
  %6 = getelementptr inbounds i8, ptr %0, i64 64
  store i64 %2, ptr %6, align 8
  %7 = getelementptr inbounds i8, ptr %0, i64 72
  store i64 %3, ptr %7, align 8
  %8 = getelementptr inbounds i8, ptr %0, i64 80
  store i64 %4, ptr %8, align 8
  store ptr getelementptr inbounds ({ [108 x ptr] }, ptr @_ZTVN6casadi5InputE, i64 0, i32 0, i64 2), ptr %0, align 8
  invoke void @_ZN6casadi6MXNode12set_sparsityERKNS_8SparsityE(ptr noundef nonnull align 8 dereferenceable(64) %0, ptr noundef nonnull align 8 dereferenceable(8) %1)
          to label %9 unwind label %10

9:                                                ; preds = %5
  ret void

10:                                               ; preds = %5
  %11 = landingpad { ptr, i32 }
          cleanup
  tail call void @_ZN6casadi6MXNodeD2Ev(ptr noundef nonnull align 8 dereferenceable(64) %0) #16
  resume { ptr, i32 } %11
}